target datalayout = "e-m:e-p270:32:32-p271:32:32-p272:64:64-i64:64-i128:128-f80:128-n8:16:32:64-S128"
target triple = "x86_64-pc-linux-gnu"

@.str.70 = private unnamed_addr constant [1 x i8] zeroinitializer, align 1

; Function Attrs: nounwind uwtable
define dso_local zeroext i1 @check_primary_slot_name(ptr noundef %0, ptr noundef %1, i32 noundef %2) #0 {
  %4 = alloca i1, align 1
  %5 = alloca ptr, align 8
  %6 = alloca ptr, align 8
  %7 = alloca i32, align 4
  store ptr %0, ptr %5, align 8
  store ptr %1, ptr %6, align 8
  store i32 %2, ptr %7, align 4
  %8 = load ptr, ptr %5, align 8
  %9 = load ptr, ptr %8, align 8
  %10 = icmp ne ptr %9, null
  br i1 %10, label %11, label %21

11:                                               ; preds = %3
  %12 = load ptr, ptr %5, align 8
  %13 = load ptr, ptr %12, align 8
  %14 = call i32 @strcmp(ptr noundef %13, ptr noundef @.str.70) #16
  %15 = icmp ne i32 %14, 0
  br i1 %15, label %16, label %21

16:                                               ; preds = %11
  %17 = load ptr, ptr %5, align 8
  %18 = load ptr, ptr %17, align 8
  %19 = call zeroext i1 @ReplicationSlotValidateName(ptr noundef %18, i32 noundef 19)
  br i1 %19, label %21, label %20

20:                                               ; preds = %16
  store i1 false, ptr %4, align 1
  br label %22

21:                                               ; preds = %16, %11, %3
  store i1 true, ptr %4, align 1
  br label %22

22:                                               ; preds = %21, %20
  %23 = load i1, ptr %4, align 1
  ret i1 %23
}