; Function Attrs: nounwind uwtable
define dso_local noundef zeroext i1 @check_primary_slot_name(ptr noundef readonly captures(none) %0, ptr noundef readnone captures(none) %1, i32 noundef %2) local_unnamed_addr #2 {
  %4 = load ptr, ptr %0, align 8
  %.not = icmp eq ptr %4, null
  br i1 %.not, label %8, label %5

5:                                                ; preds = %3
  %strcmpload = load i8, ptr %4, align 1
  %.not5 = icmp eq i8 %strcmpload, 0
  br i1 %.not5, label %8, label %6

6:                                                ; preds = %5
  %7 = tail call zeroext i1 @ReplicationSlotValidateName(ptr noundef nonnull %4, i32 noundef 19) #23
  br i1 %7, label %8, label %9

8:                                                ; preds = %6, %5, %3
  br label %9

9:                                                ; preds = %6, %8
  %.0 = phi i1 [ true, %8 ], [ false, %6 ]
  ret i1 %.0
}